; Function Attrs: mustprogress nounwind uwtable
define hidden noundef zeroext i1 @_ZNK14PhaseIdealLoop23safe_for_if_replacementEPK4Node(ptr nocapture noundef nonnull readnone align 8 dereferenceable(237) %0, ptr noundef %1) local_unnamed_addr #0 align 2 {
  %3 = getelementptr inbounds i8, ptr %1, i64 44
  %4 = load i32, ptr %3, align 4
  %5 = and i32 %4, 127
  %6 = icmp eq i32 %5, 117
  br i1 %6, label %7, label %18

7:                                                ; preds = %2
  %8 = tail call noundef ptr @_ZNK22BaseCountedLoopEndNode8loopnodeEv(ptr noundef nonnull align 8 dereferenceable(60) %1)
  %9 = icmp eq ptr %8, null
  br i1 %9, label %18, label %10

10:                                               ; preds = %7
  %11 = getelementptr inbounds i8, ptr %8, i64 60
  %12 = load i32, ptr %11, align 4
  %13 = and i32 %12, 3
  %14 = icmp eq i32 %13, 2
  br i1 %14, label %15, label %18

15:                                               ; preds = %10
  %16 = tail call noundef ptr @_ZN15CountedLoopNode23is_canonical_loop_entryEv(ptr noundef nonnull align 8 dereferenceable(92) %8) #9
  %17 = icmp eq ptr %16, null
  br label %18

18:                                               ; preds = %15, %10, %7, %2
  %.0 = phi i1 [ true, %2 ], [ true, %7 ], [ true, %10 ], [ %17, %15 ]
  ret i1 %.0
}